(dp0
S'isBitsSharp'
p1
I00
sS'age'
p2
F30.0
sS'leftEye'
p3
I00
sS'OzSize'
p4
cnumpy.core.multiarray
_reconstruct
p5
(cnumpy
ndarray
p6
(I0
tp7
S'b'
p8
tp9
Rp10
(I1
(I2
tp11
cnumpy
dtype
p12
(S'f8'
p13
I0
I1
tp14
Rp15
(I3
S'<'
p16
NNNI-1
I-1
I0
tp17
bI00
S'\xcd\xcc\xcc\xcc\xcc\xcc\xdc?\x9a\x99\x99\x99\x99\x99\xb9?'
p18
tp19
bsS'Oz_width'
p20
S'0.1'
p21
sS'noBitsSharp'
p22
I01
sS'rightEye'
p23
I01
sS'ID'
p24
S'test'
p25
sS'Oz_height'
p26
S'0.45'
p27
s.