(dp0
S'lastFields'
p1
S'/home/brian/Projects/Python/Psychopy/colorMatch/dat/10001/fields_2018-10-17_10:33:00.pkl'
p2
sS'isBitsSharp'
p3
I00
sS'age'
p4
F30.0
sS'leftEye'
p5
I00
sS'OzSize'
p6
cnumpy.core.multiarray
_reconstruct
p7
(cnumpy
ndarray
p8
(I0
tp9
S'b'
p10
tp11
Rp12
(I1
(I2
tp13
cnumpy
dtype
p14
(S'f8'
p15
I0
I1
tp16
Rp17
(I3
S'<'
p18
NNNI-1
I-1
I0
tp19
bI00
S'\xcd\xcc\xcc\xcc\xcc\xcc\xdc?\x9a\x99\x99\x99\x99\x99\xb9?'
p20
tp21
bsS'Oz_width'
p22
S'0.1'
p23
sS'noBitsSharp'
p24
I01
sS'rightEye'
p25
I01
sS'ID'
p26
S'10001'
p27
sS'Oz_height'
p28
S'0.45'
p29
s.